target datalayout = "e-m:e-p270:32:32-p271:32:32-p272:64:64-i64:64-i128:128-f80:128-n8:16:32:64-S128"
target triple = "x86_64-unknown-linux-gnu"

%"class.std::__cxx11::basic_string" = type { %"struct.std::__cxx11::basic_string<char>::_Alloc_hider", i64, %union.anon }
%"struct.std::__cxx11::basic_string<char>::_Alloc_hider" = type { ptr }
%union.anon = type { i64, [8 x i8] }
%"class.std::__cxx11::basic_stringbuf" = type { %"class.std::basic_streambuf", i32, %"class.std::__cxx11::basic_string" }
%"class.std::basic_streambuf" = type { ptr, ptr, ptr, ptr, ptr, ptr, ptr, %"class.std::locale" }
%"class.std::locale" = type { ptr }
%"class.std::basic_ios" = type { %"class.std::ios_base", ptr, i8, i8, ptr, ptr, ptr, ptr }
%"class.std::ios_base" = type { ptr, i64, i64, i32, i32, i32, ptr, %"struct.std::ios_base::_Words", [8 x %"struct.std::ios_base::_Words"], i32, ptr, %"class.std::locale" }
%"struct.std::ios_base::_Words" = type { ptr, i64 }
%"struct.std::_Vector_base" = type { %"struct.std::_Vector_base<tinyobj::material_t, std::allocator<tinyobj::material_t>>::_Vector_impl" }
%"struct.std::_Vector_base<tinyobj::material_t, std::allocator<tinyobj::material_t>>::_Vector_impl" = type { %"struct.std::_Vector_base<tinyobj::material_t, std::allocator<tinyobj::material_t>>::_Vector_impl_data" }
%"struct.std::_Vector_base<tinyobj::material_t, std::allocator<tinyobj::material_t>>::_Vector_impl_data" = type { ptr, ptr, ptr }
%"class.tinyobj::MaterialReader" = type { ptr }
%"class.tinyobj::MaterialStreamReader" = type { %"class.tinyobj::MaterialReader", ptr }
%"struct.tinyobj::attrib_t" = type { %"class.std::vector.26", %"class.std::vector.26", %"class.std::vector.26", %"class.std::vector.26", %"class.std::vector.26", %"class.std::vector.26", %"class.std::vector.31" }
%"class.std::vector.26" = type { %"struct.std::_Vector_base.27" }
%"struct.std::_Vector_base.27" = type { %"struct.std::_Vector_base<float, std::allocator<float>>::_Vector_impl" }
%"struct.std::_Vector_base<float, std::allocator<float>>::_Vector_impl" = type { %"struct.std::_Vector_base<float, std::allocator<float>>::_Vector_impl_data" }
%"struct.std::_Vector_base<float, std::allocator<float>>::_Vector_impl_data" = type { ptr, ptr, ptr }
%"class.std::vector.31" = type { %"struct.std::_Vector_base.32" }
%"struct.std::_Vector_base.32" = type { %"struct.std::_Vector_base<tinyobj::skin_weight_t, std::allocator<tinyobj::skin_weight_t>>::_Vector_impl" }
%"struct.std::_Vector_base<tinyobj::skin_weight_t, std::allocator<tinyobj::skin_weight_t>>::_Vector_impl" = type { %"struct.std::_Vector_base<tinyobj::skin_weight_t, std::allocator<tinyobj::skin_weight_t>>::_Vector_impl_data" }
%"struct.std::_Vector_base<tinyobj::skin_weight_t, std::allocator<tinyobj::skin_weight_t>>::_Vector_impl_data" = type { ptr, ptr, ptr }
%"struct.std::_Vector_base.37" = type { %"struct.std::_Vector_base<tinyobj::shape_t, std::allocator<tinyobj::shape_t>>::_Vector_impl" }
%"struct.std::_Vector_base<tinyobj::shape_t, std::allocator<tinyobj::shape_t>>::_Vector_impl" = type { %"struct.std::_Vector_base<tinyobj::shape_t, std::allocator<tinyobj::shape_t>>::_Vector_impl_data" }
%"struct.std::_Vector_base<tinyobj::shape_t, std::allocator<tinyobj::shape_t>>::_Vector_impl_data" = type { ptr, ptr, ptr }
%"class.std::vector" = type { %"struct.std::_Vector_base" }
%"struct.tinyobj::ObjReaderConfig" = type { i8, %"class.std::__cxx11::basic_string", i8, %"class.std::__cxx11::basic_string" }
%"class.tinyobj::ObjReader" = type { i8, %"struct.tinyobj::attrib_t", %"class.std::vector.36", %"class.std::vector", %"class.std::__cxx11::basic_string", %"class.std::__cxx11::basic_string" }
%"class.std::vector.36" = type { %"struct.std::_Vector_base.37" }
%"class.std::basic_istream" = type { ptr, i64, %"class.std::basic_ios" }

@_ZTVN7tinyobj14MaterialReaderE = unnamed_addr constant { [5 x ptr] } { [5 x ptr] [ptr null, ptr @_ZTIN7tinyobj14MaterialReaderE, ptr @_ZN7tinyobj14MaterialReaderD1Ev, ptr @_ZN7tinyobj14MaterialReaderD0Ev, ptr @__cxa_pure_virtual] }, align 8
@_ZTVNSt7__cxx1115basic_stringbufIcSt11char_traitsIcESaIcEEE = external unnamed_addr constant { [16 x ptr] }, align 8

; Function Attrs: mustprogress nounwind uwtable
define void @_ZN7tinyobj14MaterialReaderD2Ev(ptr noundef nonnull align 8 dereferenceable(8) %this) unnamed_addr #0 align 2 {
entry:
  %this.addr = alloca ptr, align 8
  store ptr %this, ptr %this.addr, align 8
  ret void
}

; Function Attrs: mustprogress nounwind uwtable
define linkonce_odr void @_ZN7tinyobj14MaterialReaderC2Ev(ptr noundef nonnull align 8 dereferenceable(8) %this) unnamed_addr #0 comdat align 2 {
entry:
  %this.addr = alloca ptr, align 8
  store ptr %this, ptr %this.addr, align 8
  %this1 = load ptr, ptr %this.addr, align 8
  store ptr getelementptr inbounds ({ [5 x ptr] }, ptr @_ZTVN7tinyobj14MaterialReaderE, i32 0, i32 0, i32 2), ptr %this1, align 8
  ret void
}

; Function Attrs: mustprogress nounwind uwtable
define linkonce_odr void @_ZNSt7__cxx1115basic_stringbufIcSt11char_traitsIcESaIcEED2Ev(ptr noundef nonnull align 8 dereferenceable(104) %this) unnamed_addr #0 comdat align 2 {
entry:
  %this.addr = alloca ptr, align 8
  store ptr %this, ptr %this.addr, align 8
  %this1 = load ptr, ptr %this.addr, align 8
  store ptr getelementptr inbounds ({ [16 x ptr] }, ptr @_ZTVNSt7__cxx1115basic_stringbufIcSt11char_traitsIcESaIcEEE, i32 0, i32 0, i32 2), ptr %this1, align 8
  %_M_string = getelementptr inbounds %"class.std::__cxx11::basic_stringbuf", ptr %this1, i32 0, i32 2
  call void @_ZNSt7__cxx1112basic_stringIcSt11char_traitsIcESaIcEED1Ev(ptr noundef nonnull align 8 dereferenceable(32) %_M_string) #14
  call void @_ZNSt15basic_streambufIcSt11char_traitsIcEED2Ev(ptr noundef nonnull align 8 dereferenceable(64) %this1) #14
  ret void
}

; Function Attrs: mustprogress nounwind uwtable
define linkonce_odr void @_ZN7tinyobj20MaterialStreamReaderD2Ev(ptr noundef nonnull align 8 dereferenceable(16) %this) unnamed_addr #0 comdat align 2 {
entry:
  %this.addr = alloca ptr, align 8
  store ptr %this, ptr %this.addr, align 8
  %this1 = load ptr, ptr %this.addr, align 8
  call void @_ZN7tinyobj14MaterialReaderD2Ev(ptr noundef nonnull align 8 dereferenceable(8) %this1) #14
  ret void
}

; Function Attrs: mustprogress nounwind uwtable
define linkonce_odr void @_ZN7tinyobj20MaterialStreamReaderC2ERSi(ptr noundef nonnull align 8 dereferenceable(16) %this, ptr noundef nonnull align 8 dereferenceable(16) %inStream) unnamed_addr #0 comdat align 2 {
entry:
  %this.addr = alloca ptr, align 8
  %inStream.addr = alloca ptr, align 8
  store ptr %this, ptr %this.addr, align 8
  store ptr %inStream, ptr %inStream.addr, align 8
  %this1 = load ptr, ptr %this.addr, align 8
  call void @_ZN7tinyobj14MaterialReaderC2Ev(ptr noundef nonnull align 8 dereferenceable(8) %this1)
  store ptr getelementptr inbounds ({ [5 x ptr] }, ptr @_ZTVN7tinyobj20MaterialStreamReaderE, i32 0, i32 0, i32 2), ptr %this1, align 8
  %m_inStream = getelementptr inbounds %"class.tinyobj::MaterialStreamReader", ptr %this1, i32 0, i32 1
  %0 = load ptr, ptr %inStream.addr, align 8
  store ptr %0, ptr %m_inStream, align 8
  ret void
}

; Function Attrs: mustprogress nounwind uwtable
define linkonce_odr noundef i32 @_ZStorSt13_Ios_OpenmodeS_(i32 noundef %__a, i32 noundef %__b) #0 comdat {
entry:
  %__a.addr = alloca i32, align 4
  %__b.addr = alloca i32, align 4
  store i32 %__a, ptr %__a.addr, align 4
  store i32 %__b, ptr %__b.addr, align 4
  %0 = load i32, ptr %__a.addr, align 4
  %1 = load i32, ptr %__b.addr, align 4
  %or = or i32 %0, %1
  ret i32 %or
}

; Function Attrs: mustprogress uwtable
define noundef zeroext i1 @_ZN7tinyobj9ObjReader15ParseFromStringERKNSt7__cxx1112basic_stringIcSt11char_traitsIcESaIcEEES8_RKNS_15ObjReaderConfigE(ptr noundef nonnull align 8 dereferenceable(288) %this, ptr noundef nonnull align 8 dereferenceable(32) %obj_text, ptr noundef nonnull align 8 dereferenceable(32) %mtl_text, ptr noundef nonnull align 8 dereferenceable(80) %config) #2 align 2 personality ptr @__gxx_personality_v0 {
entry:
  %this.addr = alloca ptr, align 8
  %obj_text.addr = alloca ptr, align 8
  %mtl_text.addr = alloca ptr, align 8
  %config.addr = alloca ptr, align 8
  %obj_buf = alloca %"class.std::__cxx11::basic_stringbuf", align 8
  %mtl_buf = alloca %"class.std::__cxx11::basic_stringbuf", align 8
  %exn.slot = alloca ptr, align 8
  %ehselector.slot = alloca i32, align 4
  %obj_ifs = alloca %"class.std::basic_istream", align 8
  %mtl_ifs = alloca %"class.std::basic_istream", align 8
  %mtl_ss = alloca %"class.tinyobj::MaterialStreamReader", align 8
  store ptr %this, ptr %this.addr, align 8
  store ptr %obj_text, ptr %obj_text.addr, align 8
  store ptr %mtl_text, ptr %mtl_text.addr, align 8
  store ptr %config, ptr %config.addr, align 8
  %this1 = load ptr, ptr %this.addr, align 8
  %0 = load ptr, ptr %obj_text.addr, align 8
  %call = call noundef i32 @_ZStorSt13_Ios_OpenmodeS_(i32 noundef 8, i32 noundef 16)
  call void @_ZNSt7__cxx1115basic_stringbufIcSt11char_traitsIcESaIcEEC1ERKNS_12basic_stringIcS2_S3_EESt13_Ios_Openmode(ptr noundef nonnull align 8 dereferenceable(104) %obj_buf, ptr noundef nonnull align 8 dereferenceable(32) %0, i32 noundef %call)
  %1 = load ptr, ptr %mtl_text.addr, align 8
  %call2 = invoke noundef i32 @_ZStorSt13_Ios_OpenmodeS_(i32 noundef 8, i32 noundef 16)
          to label %invoke.cont unwind label %lpad

invoke.cont:                                      ; preds = %entry
  invoke void @_ZNSt7__cxx1115basic_stringbufIcSt11char_traitsIcESaIcEEC1ERKNS_12basic_stringIcS2_S3_EESt13_Ios_Openmode(ptr noundef nonnull align 8 dereferenceable(104) %mtl_buf, ptr noundef nonnull align 8 dereferenceable(32) %1, i32 noundef %call2)
          to label %invoke.cont3 unwind label %lpad

invoke.cont3:                                     ; preds = %invoke.cont
  invoke void @_ZNSiC1EPSt15basic_streambufIcSt11char_traitsIcEE(ptr noundef nonnull align 8 dereferenceable(16) %obj_ifs, ptr noundef %obj_buf)
          to label %invoke.cont5 unwind label %lpad4

invoke.cont5:                                     ; preds = %invoke.cont3
  invoke void @_ZNSiC1EPSt15basic_streambufIcSt11char_traitsIcEE(ptr noundef nonnull align 8 dereferenceable(16) %mtl_ifs, ptr noundef %mtl_buf)
          to label %invoke.cont7 unwind label %lpad6

invoke.cont7:                                     ; preds = %invoke.cont5
  invoke void @_ZN7tinyobj20MaterialStreamReaderC2ERSi(ptr noundef nonnull align 8 dereferenceable(16) %mtl_ss, ptr noundef nonnull align 8 dereferenceable(16) %mtl_ifs)
          to label %invoke.cont9 unwind label %lpad8

invoke.cont9:                                     ; preds = %invoke.cont7
  %attrib_ = getelementptr inbounds %"class.tinyobj::ObjReader", ptr %this1, i32 0, i32 1
  %shapes_ = getelementptr inbounds %"class.tinyobj::ObjReader", ptr %this1, i32 0, i32 2
  %materials_ = getelementptr inbounds %"class.tinyobj::ObjReader", ptr %this1, i32 0, i32 3
  %warning_ = getelementptr inbounds %"class.tinyobj::ObjReader", ptr %this1, i32 0, i32 4
  %error_ = getelementptr inbounds %"class.tinyobj::ObjReader", ptr %this1, i32 0, i32 5
  %2 = load ptr, ptr %config.addr, align 8
  %triangulate = getelementptr inbounds %"struct.tinyobj::ObjReaderConfig", ptr %2, i32 0, i32 0
  %3 = load i8, ptr %triangulate, align 8
  %tobool = trunc i8 %3 to i1
  %4 = load ptr, ptr %config.addr, align 8
  %vertex_color = getelementptr inbounds %"struct.tinyobj::ObjReaderConfig", ptr %4, i32 0, i32 2
  %5 = load i8, ptr %vertex_color, align 8
  %tobool10 = trunc i8 %5 to i1
  %call13 = invoke noundef zeroext i1 @_ZN7tinyobj7LoadObjEPNS_8attrib_tEPSt6vectorINS_7shape_tESaIS3_EEPS2_INS_10material_tESaIS7_EEPNSt7__cxx1112basic_stringIcSt11char_traitsIcESaIcEEESH_PSiPNS_14MaterialReaderEbb(ptr noundef %attrib_, ptr noundef %shapes_, ptr noundef %materials_, ptr noundef %warning_, ptr noundef %error_, ptr noundef %obj_ifs, ptr noundef %mtl_ss, i1 noundef zeroext %tobool, i1 noundef zeroext %tobool10)
          to label %invoke.cont12 unwind label %lpad11

invoke.cont12:                                    ; preds = %invoke.cont9
  %valid_ = getelementptr inbounds %"class.tinyobj::ObjReader", ptr %this1, i32 0, i32 0
  %frombool = zext i1 %call13 to i8
  store i8 %frombool, ptr %valid_, align 8
  %valid_14 = getelementptr inbounds %"class.tinyobj::ObjReader", ptr %this1, i32 0, i32 0
  %6 = load i8, ptr %valid_14, align 8
  %tobool15 = trunc i8 %6 to i1
  call void @_ZN7tinyobj20MaterialStreamReaderD2Ev(ptr noundef nonnull align 8 dereferenceable(16) %mtl_ss) #14
  call void @_ZNSiD1Ev(ptr noundef nonnull align 8 dereferenceable(16) %mtl_ifs) #14
  call void @_ZNSiD1Ev(ptr noundef nonnull align 8 dereferenceable(16) %obj_ifs) #14
  call void @_ZNSt7__cxx1115basic_stringbufIcSt11char_traitsIcESaIcEED2Ev(ptr noundef nonnull align 8 dereferenceable(104) %mtl_buf) #14
  call void @_ZNSt7__cxx1115basic_stringbufIcSt11char_traitsIcESaIcEED2Ev(ptr noundef nonnull align 8 dereferenceable(104) %obj_buf) #14
  ret i1 %tobool15

lpad:                                             ; preds = %invoke.cont, %entry
  %7 = landingpad { ptr, i32 }
          cleanup
  %8 = extractvalue { ptr, i32 } %7, 0
  store ptr %8, ptr %exn.slot, align 8
  %9 = extractvalue { ptr, i32 } %7, 1
  store i32 %9, ptr %ehselector.slot, align 4
  br label %ehcleanup18

lpad4:                                            ; preds = %invoke.cont3
  %10 = landingpad { ptr, i32 }
          cleanup
  %11 = extractvalue { ptr, i32 } %10, 0
  store ptr %11, ptr %exn.slot, align 8
  %12 = extractvalue { ptr, i32 } %10, 1
  store i32 %12, ptr %ehselector.slot, align 4
  br label %ehcleanup17

lpad6:                                            ; preds = %invoke.cont5
  %13 = landingpad { ptr, i32 }
          cleanup
  %14 = extractvalue { ptr, i32 } %13, 0
  store ptr %14, ptr %exn.slot, align 8
  %15 = extractvalue { ptr, i32 } %13, 1
  store i32 %15, ptr %ehselector.slot, align 4
  br label %ehcleanup16

lpad8:                                            ; preds = %invoke.cont7
  %16 = landingpad { ptr, i32 }
          cleanup
  %17 = extractvalue { ptr, i32 } %16, 0
  store ptr %17, ptr %exn.slot, align 8
  %18 = extractvalue { ptr, i32 } %16, 1
  store i32 %18, ptr %ehselector.slot, align 4
  br label %ehcleanup

lpad11:                                           ; preds = %invoke.cont9
  %19 = landingpad { ptr, i32 }
          cleanup
  %20 = extractvalue { ptr, i32 } %19, 0
  store ptr %20, ptr %exn.slot, align 8
  %21 = extractvalue { ptr, i32 } %19, 1
  store i32 %21, ptr %ehselector.slot, align 4
  call void @_ZN7tinyobj20MaterialStreamReaderD2Ev(ptr noundef nonnull align 8 dereferenceable(16) %mtl_ss) #14
  br label %ehcleanup

ehcleanup:                                        ; preds = %lpad11, %lpad8
  call void @_ZNSiD1Ev(ptr noundef nonnull align 8 dereferenceable(16) %mtl_ifs) #14
  br label %ehcleanup16

ehcleanup16:                                      ; preds = %ehcleanup, %lpad6
  call void @_ZNSiD1Ev(ptr noundef nonnull align 8 dereferenceable(16) %obj_ifs) #14
  br label %ehcleanup17

ehcleanup17:                                      ; preds = %ehcleanup16, %lpad4
  call void @_ZNSt7__cxx1115basic_stringbufIcSt11char_traitsIcESaIcEED2Ev(ptr noundef nonnull align 8 dereferenceable(104) %mtl_buf) #14
  br label %ehcleanup18

ehcleanup18:                                      ; preds = %ehcleanup17, %lpad
  call void @_ZNSt7__cxx1115basic_stringbufIcSt11char_traitsIcESaIcEED2Ev(ptr noundef nonnull align 8 dereferenceable(104) %obj_buf) #14
  br label %eh.resume

eh.resume:                                        ; preds = %ehcleanup18
  %exn = load ptr, ptr %exn.slot, align 8
  %sel = load i32, ptr %ehselector.slot, align 4
  %lpad.val = insertvalue { ptr, i32 } poison, ptr %exn, 0
  %lpad.val19 = insertvalue { ptr, i32 } %lpad.val, i32 %sel, 1
  resume { ptr, i32 } %lpad.val19
}