; Function Attrs: mustprogress uwtable
define noundef zeroext i1 @_ZN7tinyobj9ObjReader15ParseFromStringERKNSt7__cxx1112basic_stringIcSt11char_traitsIcESaIcEEES8_RKNS_15ObjReaderConfigE(ptr noundef nonnull align 8 dereferenceable(288) %this, ptr noundef nonnull align 8 dereferenceable(32) %obj_text, ptr noundef nonnull align 8 dereferenceable(32) %mtl_text, ptr nocapture noundef nonnull readonly align 8 dereferenceable(80) %config) local_unnamed_addr #3 align 2 personality ptr @__gxx_personality_v0 {
entry:
  %obj_buf = alloca %"class.std::__cxx11::basic_stringbuf", align 8
  %mtl_buf = alloca %"class.std::__cxx11::basic_stringbuf", align 8
  %obj_ifs = alloca %"class.std::basic_istream", align 8
  %mtl_ifs = alloca %"class.std::basic_istream", align 8
  %mtl_ss = alloca %"class.tinyobj::MaterialStreamReader", align 8
  call void @_ZNSt7__cxx1115basic_stringbufIcSt11char_traitsIcESaIcEEC1ERKNS_12basic_stringIcS2_S3_EESt13_Ios_Openmode(ptr noundef nonnull align 8 dereferenceable(104) %obj_buf, ptr noundef nonnull align 8 dereferenceable(32) %obj_text, i32 noundef 24)
  invoke void @_ZNSt7__cxx1115basic_stringbufIcSt11char_traitsIcESaIcEEC1ERKNS_12basic_stringIcS2_S3_EESt13_Ios_Openmode(ptr noundef nonnull align 8 dereferenceable(104) %mtl_buf, ptr noundef nonnull align 8 dereferenceable(32) %mtl_text, i32 noundef 24)
          to label %invoke.cont3 unwind label %lpad

invoke.cont3:                                     ; preds = %entry
  invoke void @_ZNSiC1EPSt15basic_streambufIcSt11char_traitsIcEE(ptr noundef nonnull align 8 dereferenceable(16) %obj_ifs, ptr noundef nonnull %obj_buf)
          to label %invoke.cont5 unwind label %lpad4

invoke.cont5:                                     ; preds = %invoke.cont3
  invoke void @_ZNSiC1EPSt15basic_streambufIcSt11char_traitsIcEE(ptr noundef nonnull align 8 dereferenceable(16) %mtl_ifs, ptr noundef nonnull %mtl_buf)
          to label %invoke.cont7 unwind label %lpad6

invoke.cont7:                                     ; preds = %invoke.cont5
  store ptr getelementptr inbounds ({ [5 x ptr] }, ptr @_ZTVN7tinyobj20MaterialStreamReaderE, i64 0, i32 0, i64 2), ptr %mtl_ss, align 8
  %m_inStream.i = getelementptr inbounds i8, ptr %mtl_ss, i64 8
  store ptr %mtl_ifs, ptr %m_inStream.i, align 8
  %attrib_ = getelementptr inbounds i8, ptr %this, i64 8
  %shapes_ = getelementptr inbounds i8, ptr %this, i64 176
  %materials_ = getelementptr inbounds i8, ptr %this, i64 200
  %warning_ = getelementptr inbounds i8, ptr %this, i64 224
  %error_ = getelementptr inbounds i8, ptr %this, i64 256
  %0 = load i8, ptr %config, align 8
  %1 = and i8 %0, 1
  %tobool = icmp ne i8 %1, 0
  %vertex_color = getelementptr inbounds i8, ptr %config, i64 40
  %2 = load i8, ptr %vertex_color, align 8
  %3 = and i8 %2, 1
  %tobool10 = icmp ne i8 %3, 0
  %call13 = invoke noundef zeroext i1 @_ZN7tinyobj7LoadObjEPNS_8attrib_tEPSt6vectorINS_7shape_tESaIS3_EEPS2_INS_10material_tESaIS7_EEPNSt7__cxx1112basic_stringIcSt11char_traitsIcESaIcEEESH_PSiPNS_14MaterialReaderEbb(ptr noundef nonnull %attrib_, ptr noundef nonnull %shapes_, ptr noundef nonnull %materials_, ptr noundef nonnull %warning_, ptr noundef nonnull %error_, ptr noundef nonnull %obj_ifs, ptr noundef nonnull %mtl_ss, i1 noundef zeroext %tobool, i1 noundef zeroext %tobool10)
          to label %invoke.cont12 unwind label %lpad11

invoke.cont12:                                    ; preds = %invoke.cont7
  %frombool = zext i1 %call13 to i8
  store i8 %frombool, ptr %this, align 8
  call void @_ZNSiD1Ev(ptr noundef nonnull align 8 dereferenceable(16) %mtl_ifs) #24
  call void @_ZNSiD1Ev(ptr noundef nonnull align 8 dereferenceable(16) %obj_ifs) #24
  store ptr getelementptr inbounds ({ [16 x ptr] }, ptr @_ZTVNSt7__cxx1115basic_stringbufIcSt11char_traitsIcESaIcEEE, i64 0, i32 0, i64 2), ptr %mtl_buf, align 8
  %_M_string.i = getelementptr inbounds i8, ptr %mtl_buf, i64 72
  call void @_ZNSt7__cxx1112basic_stringIcSt11char_traitsIcESaIcEED1Ev(ptr noundef nonnull align 8 dereferenceable(32) %_M_string.i) #24
  call void @_ZNSt15basic_streambufIcSt11char_traitsIcEED2Ev(ptr noundef nonnull align 8 dereferenceable(64) %mtl_buf) #24
  store ptr getelementptr inbounds ({ [16 x ptr] }, ptr @_ZTVNSt7__cxx1115basic_stringbufIcSt11char_traitsIcESaIcEEE, i64 0, i32 0, i64 2), ptr %obj_buf, align 8
  %_M_string.i5 = getelementptr inbounds i8, ptr %obj_buf, i64 72
  call void @_ZNSt7__cxx1112basic_stringIcSt11char_traitsIcESaIcEED1Ev(ptr noundef nonnull align 8 dereferenceable(32) %_M_string.i5) #24
  call void @_ZNSt15basic_streambufIcSt11char_traitsIcEED2Ev(ptr noundef nonnull align 8 dereferenceable(64) %obj_buf) #24
  ret i1 %call13

lpad:                                             ; preds = %entry
  %4 = landingpad { ptr, i32 }
          cleanup
  br label %ehcleanup18

lpad4:                                            ; preds = %invoke.cont3
  %5 = landingpad { ptr, i32 }
          cleanup
  br label %ehcleanup17

lpad6:                                            ; preds = %invoke.cont5
  %6 = landingpad { ptr, i32 }
          cleanup
  br label %ehcleanup16

lpad11:                                           ; preds = %invoke.cont7
  %7 = landingpad { ptr, i32 }
          cleanup
  call void @_ZNSiD1Ev(ptr noundef nonnull align 8 dereferenceable(16) %mtl_ifs) #24
  br label %ehcleanup16

ehcleanup16:                                      ; preds = %lpad11, %lpad6
  %.pn = phi { ptr, i32 } [ %7, %lpad11 ], [ %6, %lpad6 ]
  call void @_ZNSiD1Ev(ptr noundef nonnull align 8 dereferenceable(16) %obj_ifs) #24
  br label %ehcleanup17

ehcleanup17:                                      ; preds = %ehcleanup16, %lpad4
  %.pn.pn = phi { ptr, i32 } [ %.pn, %ehcleanup16 ], [ %5, %lpad4 ]
  store ptr getelementptr inbounds ({ [16 x ptr] }, ptr @_ZTVNSt7__cxx1115basic_stringbufIcSt11char_traitsIcESaIcEEE, i64 0, i32 0, i64 2), ptr %mtl_buf, align 8
  %_M_string.i6 = getelementptr inbounds i8, ptr %mtl_buf, i64 72
  call void @_ZNSt7__cxx1112basic_stringIcSt11char_traitsIcESaIcEED1Ev(ptr noundef nonnull align 8 dereferenceable(32) %_M_string.i6) #24
  call void @_ZNSt15basic_streambufIcSt11char_traitsIcEED2Ev(ptr noundef nonnull align 8 dereferenceable(64) %mtl_buf) #24
  br label %ehcleanup18

ehcleanup18:                                      ; preds = %ehcleanup17, %lpad
  %.pn.pn.pn = phi { ptr, i32 } [ %.pn.pn, %ehcleanup17 ], [ %4, %lpad ]
  store ptr getelementptr inbounds ({ [16 x ptr] }, ptr @_ZTVNSt7__cxx1115basic_stringbufIcSt11char_traitsIcESaIcEEE, i64 0, i32 0, i64 2), ptr %obj_buf, align 8
  %_M_string.i7 = getelementptr inbounds i8, ptr %obj_buf, i64 72
  call void @_ZNSt7__cxx1112basic_stringIcSt11char_traitsIcESaIcEED1Ev(ptr noundef nonnull align 8 dereferenceable(32) %_M_string.i7) #24
  call void @_ZNSt15basic_streambufIcSt11char_traitsIcEED2Ev(ptr noundef nonnull align 8 dereferenceable(64) %obj_buf) #24
  resume { ptr, i32 } %.pn.pn.pn
}